target datalayout = "e-m:e-p270:32:32-p271:32:32-p272:64:64-i64:64-i128:128-f80:128-n8:16:32:64-S128"
target triple = "x86_64-unknown-linux-gnu"

%"class.icu_75::UObject" = type { ptr }
%"class.icu_75::ConstChar16Ptr" = type { ptr }
%"class.icu_75::UnicodeString" = type { %"class.icu_75::Replaceable", %"union.icu_75::UnicodeString::StackBufferOrFields" }
%"class.icu_75::Replaceable" = type { %"class.icu_75::UObject" }
%"union.icu_75::UnicodeString::StackBufferOrFields" = type { %struct.anon.0, [32 x i8] }
%struct.anon.0 = type { i16, i32, i32, ptr }
%union.UElement = type { ptr }
%"struct.icu_75::PartialLocationKey" = type { ptr, ptr, i8 }

; Function Attrs: mustprogress nounwind uwtable
define linkonce_odr noundef ptr @_ZNK6icu_7514ConstChar16Ptr3getEv(ptr noundef nonnull align 8 dereferenceable(8) %this) #0 comdat align 2 {
entry:
  %this.addr = alloca ptr, align 8
  store ptr %this, ptr %this.addr, align 8
  %this1 = load ptr, ptr %this.addr, align 8
  %p_ = getelementptr inbounds %"class.icu_75::ConstChar16Ptr", ptr %this1, i32 0, i32 0
  %0 = load ptr, ptr %p_, align 8
  ret ptr %0
}

; Function Attrs: mustprogress uwtable
define linkonce_odr noundef ptr @_ZNK6icu_7514ConstChar16PtrcvPKDsEv(ptr noundef nonnull align 8 dereferenceable(8) %this) #1 comdat align 2 {
entry:
  %this.addr = alloca ptr, align 8
  store ptr %this, ptr %this.addr, align 8
  %this1 = load ptr, ptr %this.addr, align 8
  %call = call noundef ptr @_ZNK6icu_7514ConstChar16Ptr3getEv(ptr noundef nonnull align 8 dereferenceable(8) %this1)
  ret ptr %call
}

; Function Attrs: mustprogress uwtable
define linkonce_odr noundef i32 @_ZNK6icu_7513UnicodeString8hashCodeEv(ptr noundef nonnull align 8 dereferenceable(64) %this) #1 comdat align 2 {
entry:
  %this.addr = alloca ptr, align 8
  store ptr %this, ptr %this.addr, align 8
  %this1 = load ptr, ptr %this.addr, align 8
  %call = call noundef i32 @_ZNK6icu_7513UnicodeString10doHashCodeEv(ptr noundef nonnull align 8 dereferenceable(64) %this1)
  ret i32 %call
}

; Function Attrs: mustprogress nounwind uwtable
define linkonce_odr void @_ZN6icu_7514ConstChar16PtrD2Ev(ptr noundef nonnull align 8 dereferenceable(8) %this) unnamed_addr #0 comdat align 2 {
entry:
  %this.addr = alloca ptr, align 8
  store ptr %this, ptr %this.addr, align 8
  %this1 = load ptr, ptr %this.addr, align 8
  %p_ = getelementptr inbounds %"class.icu_75::ConstChar16Ptr", ptr %this1, i32 0, i32 0
  %0 = load ptr, ptr %p_, align 8
  call void asm sideeffect "", "rm,~{memory},~{dirflag},~{fpsr},~{flags}"(ptr %0) #9, !srcloc !4
  ret void
}

; Function Attrs: mustprogress uwtable
define linkonce_odr noundef nonnull align 8 dereferenceable(64) ptr @_ZN6icu_7513UnicodeString6appendENS_14ConstChar16PtrEi(ptr noundef nonnull align 8 dereferenceable(64) %this, ptr noundef %srcChars, i32 noundef %srcLength) #1 comdat align 2 {
entry:
  %this.addr = alloca ptr, align 8
  %srcChars.indirect_addr = alloca ptr, align 8
  %srcLength.addr = alloca i32, align 4
  store ptr %this, ptr %this.addr, align 8
  store ptr %srcChars, ptr %srcChars.indirect_addr, align 8
  store i32 %srcLength, ptr %srcLength.addr, align 4
  %this1 = load ptr, ptr %this.addr, align 8
  %call = call noundef ptr @_ZNK6icu_7514ConstChar16PtrcvPKDsEv(ptr noundef nonnull align 8 dereferenceable(8) %srcChars)
  %0 = load i32, ptr %srcLength.addr, align 4
  %call2 = call noundef nonnull align 8 dereferenceable(64) ptr @_ZN6icu_7513UnicodeString8doAppendEPKDsii(ptr noundef nonnull align 8 dereferenceable(64) %this1, ptr noundef %call, i32 noundef 0, i32 noundef %0)
  ret ptr %call2
}

; Function Attrs: mustprogress nounwind uwtable
define linkonce_odr void @_ZN6icu_7514ConstChar16PtrC2EPKDs(ptr noundef nonnull align 8 dereferenceable(8) %this, ptr noundef %p) unnamed_addr #0 comdat align 2 {
entry:
  %this.addr = alloca ptr, align 8
  %p.addr = alloca ptr, align 8
  store ptr %this, ptr %this.addr, align 8
  store ptr %p, ptr %p.addr, align 8
  %this1 = load ptr, ptr %this.addr, align 8
  %p_ = getelementptr inbounds %"class.icu_75::ConstChar16Ptr", ptr %this1, i32 0, i32 0
  %0 = load ptr, ptr %p.addr, align 8
  store ptr %0, ptr %p_, align 8
  ret void
}

; Function Attrs: mustprogress uwtable
define linkonce_odr noundef nonnull align 8 dereferenceable(64) ptr @_ZN6icu_7513UnicodeString6appendEDs(ptr noundef nonnull align 8 dereferenceable(64) %this, i16 noundef zeroext %srcChar) #1 comdat align 2 {
entry:
  %this.addr = alloca ptr, align 8
  %srcChar.addr = alloca i16, align 2
  store ptr %this, ptr %this.addr, align 8
  store i16 %srcChar, ptr %srcChar.addr, align 2
  %this1 = load ptr, ptr %this.addr, align 8
  %call = call noundef nonnull align 8 dereferenceable(64) ptr @_ZN6icu_7513UnicodeString8doAppendEPKDsii(ptr noundef nonnull align 8 dereferenceable(64) %this1, ptr noundef %srcChar.addr, i32 noundef 0, i32 noundef 1)
  ret ptr %call
}

; Function Attrs: mustprogress uwtable
define internal noundef i32 @_ZN6icu_75L22hashPartialLocationKeyE8UElement(ptr %key.coerce) #1 personality ptr @__gxx_personality_v0 {
entry:
  %key = alloca %union.UElement, align 8
  %p = alloca ptr, align 8
  %str = alloca %"class.icu_75::UnicodeString", align 8
  %exn.slot = alloca ptr, align 8
  %ehselector.slot = alloca i32, align 4
  %agg.tmp = alloca %"class.icu_75::ConstChar16Ptr", align 8
  %coerce.dive = getelementptr inbounds %union.UElement, ptr %key, i32 0, i32 0
  store ptr %key.coerce, ptr %coerce.dive, align 8
  %0 = load ptr, ptr %key, align 8
  store ptr %0, ptr %p, align 8
  %1 = load ptr, ptr %p, align 8
  %tzID = getelementptr inbounds %"struct.icu_75::PartialLocationKey", ptr %1, i32 0, i32 0
  %2 = load ptr, ptr %tzID, align 8
  call void @_ZN6icu_7513UnicodeStringC1EPKDs(ptr noundef nonnull align 8 dereferenceable(64) %str, ptr noundef %2)
  %call = invoke noundef nonnull align 8 dereferenceable(64) ptr @_ZN6icu_7513UnicodeString6appendEDs(ptr noundef nonnull align 8 dereferenceable(64) %str, i16 noundef zeroext 38)
          to label %invoke.cont unwind label %lpad

invoke.cont:                                      ; preds = %entry
  %3 = load ptr, ptr %p, align 8
  %mzID = getelementptr inbounds %"struct.icu_75::PartialLocationKey", ptr %3, i32 0, i32 1
  %4 = load ptr, ptr %mzID, align 8
  invoke void @_ZN6icu_7514ConstChar16PtrC2EPKDs(ptr noundef nonnull align 8 dereferenceable(8) %agg.tmp, ptr noundef %4)
          to label %invoke.cont1 unwind label %lpad

invoke.cont1:                                     ; preds = %invoke.cont
  %call4 = invoke noundef nonnull align 8 dereferenceable(64) ptr @_ZN6icu_7513UnicodeString6appendENS_14ConstChar16PtrEi(ptr noundef nonnull align 8 dereferenceable(64) %call, ptr noundef %agg.tmp, i32 noundef -1)
          to label %invoke.cont3 unwind label %lpad2

invoke.cont3:                                     ; preds = %invoke.cont1
  %call6 = invoke noundef nonnull align 8 dereferenceable(64) ptr @_ZN6icu_7513UnicodeString6appendEDs(ptr noundef nonnull align 8 dereferenceable(64) %call4, i16 noundef zeroext 35)
          to label %invoke.cont5 unwind label %lpad2

invoke.cont5:                                     ; preds = %invoke.cont3
  %5 = load ptr, ptr %p, align 8
  %isLong = getelementptr inbounds %"struct.icu_75::PartialLocationKey", ptr %5, i32 0, i32 2
  %6 = load i8, ptr %isLong, align 8
  %tobool = icmp ne i8 %6, 0
  %cond = select i1 %tobool, i32 76, i32 83
  %conv = trunc i32 %cond to i16
  %call8 = invoke noundef nonnull align 8 dereferenceable(64) ptr @_ZN6icu_7513UnicodeString6appendEDs(ptr noundef nonnull align 8 dereferenceable(64) %call6, i16 noundef zeroext %conv)
          to label %invoke.cont7 unwind label %lpad2

invoke.cont7:                                     ; preds = %invoke.cont5
  call void @_ZN6icu_7514ConstChar16PtrD2Ev(ptr noundef nonnull align 8 dereferenceable(8) %agg.tmp) #9
  %call10 = invoke noundef i32 @_ZNK6icu_7513UnicodeString8hashCodeEv(ptr noundef nonnull align 8 dereferenceable(64) %str)
          to label %invoke.cont9 unwind label %lpad

invoke.cont9:                                     ; preds = %invoke.cont7
  call void @_ZN6icu_7513UnicodeStringD1Ev(ptr noundef nonnull align 8 dereferenceable(64) %str) #9
  ret i32 %call10

lpad:                                             ; preds = %invoke.cont7, %invoke.cont, %entry
  %7 = landingpad { ptr, i32 }
          cleanup
  %8 = extractvalue { ptr, i32 } %7, 0
  store ptr %8, ptr %exn.slot, align 8
  %9 = extractvalue { ptr, i32 } %7, 1
  store i32 %9, ptr %ehselector.slot, align 4
  br label %ehcleanup

lpad2:                                            ; preds = %invoke.cont5, %invoke.cont3, %invoke.cont1
  %10 = landingpad { ptr, i32 }
          cleanup
  %11 = extractvalue { ptr, i32 } %10, 0
  store ptr %11, ptr %exn.slot, align 8
  %12 = extractvalue { ptr, i32 } %10, 1
  store i32 %12, ptr %ehselector.slot, align 4
  call void @_ZN6icu_7514ConstChar16PtrD2Ev(ptr noundef nonnull align 8 dereferenceable(8) %agg.tmp) #9
  br label %ehcleanup

ehcleanup:                                        ; preds = %lpad2, %lpad
  call void @_ZN6icu_7513UnicodeStringD1Ev(ptr noundef nonnull align 8 dereferenceable(64) %str) #9
  br label %eh.resume

eh.resume:                                        ; preds = %ehcleanup
  %exn = load ptr, ptr %exn.slot, align 8
  %sel = load i32, ptr %ehselector.slot, align 4
  %lpad.val = insertvalue { ptr, i32 } poison, ptr %exn, 0
  %lpad.val11 = insertvalue { ptr, i32 } %lpad.val, i32 %sel, 1
  resume { ptr, i32 } %lpad.val11
}