; Function Attrs: mustprogress uwtable
define internal noundef i32 @_ZN6icu_75L22hashPartialLocationKeyE8UElement(ptr nocapture readonly %key.coerce) #1 personality ptr @__gxx_personality_v0 {
entry:
  %srcChar.addr.i9 = alloca i16, align 2
  %srcChar.addr.i6 = alloca i16, align 2
  %srcChar.addr.i = alloca i16, align 2
  %str = alloca %"class.icu_75::UnicodeString", align 8
  %0 = load ptr, ptr %key.coerce, align 8
  call void @_ZN6icu_7513UnicodeStringC1EPKDs(ptr noundef nonnull align 8 dereferenceable(64) %str, ptr noundef %0)
  call void @llvm.lifetime.start.p0(i64 2, ptr nonnull %srcChar.addr.i)
  store i16 38, ptr %srcChar.addr.i, align 2
  %call.i4 = invoke noundef nonnull align 8 dereferenceable(64) ptr @_ZN6icu_7513UnicodeString8doAppendEPKDsii(ptr noundef nonnull align 8 dereferenceable(64) %str, ptr noundef nonnull %srcChar.addr.i, i32 noundef 0, i32 noundef 1)
          to label %invoke.cont unwind label %lpad

invoke.cont:                                      ; preds = %entry
  call void @llvm.lifetime.end.p0(i64 2, ptr nonnull %srcChar.addr.i)
  %mzID = getelementptr inbounds i8, ptr %key.coerce, i64 8
  %1 = load ptr, ptr %mzID, align 8
  %call2.i5 = invoke noundef nonnull align 8 dereferenceable(64) ptr @_ZN6icu_7513UnicodeString8doAppendEPKDsii(ptr noundef nonnull align 8 dereferenceable(64) %call.i4, ptr noundef %1, i32 noundef 0, i32 noundef -1)
          to label %invoke.cont3 unwind label %lpad2

invoke.cont3:                                     ; preds = %invoke.cont
  call void @llvm.lifetime.start.p0(i64 2, ptr nonnull %srcChar.addr.i6)
  store i16 35, ptr %srcChar.addr.i6, align 2
  %call.i7 = invoke noundef nonnull align 8 dereferenceable(64) ptr @_ZN6icu_7513UnicodeString8doAppendEPKDsii(ptr noundef nonnull align 8 dereferenceable(64) %call2.i5, ptr noundef nonnull %srcChar.addr.i6, i32 noundef 0, i32 noundef 1)
          to label %invoke.cont5 unwind label %lpad2

invoke.cont5:                                     ; preds = %invoke.cont3
  call void @llvm.lifetime.end.p0(i64 2, ptr nonnull %srcChar.addr.i6)
  %isLong = getelementptr inbounds i8, ptr %key.coerce, i64 16
  %2 = load i8, ptr %isLong, align 8
  %tobool.not = icmp eq i8 %2, 0
  %conv = select i1 %tobool.not, i16 83, i16 76
  call void @llvm.lifetime.start.p0(i64 2, ptr nonnull %srcChar.addr.i9)
  store i16 %conv, ptr %srcChar.addr.i9, align 2
  %call.i10 = invoke noundef nonnull align 8 dereferenceable(64) ptr @_ZN6icu_7513UnicodeString8doAppendEPKDsii(ptr noundef nonnull align 8 dereferenceable(64) %call.i7, ptr noundef nonnull %srcChar.addr.i9, i32 noundef 0, i32 noundef 1)
          to label %invoke.cont7 unwind label %lpad2

invoke.cont7:                                     ; preds = %invoke.cont5
  call void @llvm.lifetime.end.p0(i64 2, ptr nonnull %srcChar.addr.i9)
  call void asm sideeffect "", "rm,~{memory},~{dirflag},~{fpsr},~{flags}"(ptr %1) #17, !srcloc !4
  %call.i12 = invoke noundef i32 @_ZNK6icu_7513UnicodeString10doHashCodeEv(ptr noundef nonnull align 8 dereferenceable(64) %str)
          to label %invoke.cont9 unwind label %lpad

invoke.cont9:                                     ; preds = %invoke.cont7
  call void @_ZN6icu_7513UnicodeStringD1Ev(ptr noundef nonnull align 8 dereferenceable(64) %str) #17
  ret i32 %call.i12

lpad:                                             ; preds = %invoke.cont7, %entry
  %3 = landingpad { ptr, i32 }
          cleanup
  br label %ehcleanup

lpad2:                                            ; preds = %invoke.cont5, %invoke.cont3, %invoke.cont
  %4 = landingpad { ptr, i32 }
          cleanup
  call void asm sideeffect "", "rm,~{memory},~{dirflag},~{fpsr},~{flags}"(ptr %1) #17, !srcloc !4
  br label %ehcleanup

ehcleanup:                                        ; preds = %lpad2, %lpad
  %.pn = phi { ptr, i32 } [ %3, %lpad ], [ %4, %lpad2 ]
  call void @_ZN6icu_7513UnicodeStringD1Ev(ptr noundef nonnull align 8 dereferenceable(64) %str) #17
  resume { ptr, i32 } %.pn
}